target datalayout = "e-m:e-p270:32:32-p271:32:32-p272:64:64-i64:64-i128:128-f80:128-n8:16:32:64-S128"
target triple = "x86_64-pc-linux-gnu"

%struct.H5C_t = type { i8, ptr, ptr, i32, ptr, i64, i64, ptr, i8, ptr, i8, i8, i32, i64, [6 x i32], [6 x i64], i64, [6 x i64], i64, [6 x i64], [65536 x ptr], i32, i64, ptr, ptr, i64, ptr, ptr, i8, i8, i32, i64, [6 x i32], [6 x i64], ptr, i32, ptr, i8, i32, i32, i64, ptr, ptr, i32, i64, ptr, ptr, i32, i64, ptr, ptr, i8, i8, i64, i8, i8, i8, i8, i8, i8, %struct.H5C_auto_size_ctl_t, i32, [10 x i8], [11 x i32], i32, i32, i32, [10 x %struct.H5C_cache_entry_t], i64, i64, %struct.H5C_cache_image_ctl_t, i8, i8, i8, i8, i64, i64, i64, i64, i64, i64, i64, i32, ptr, ptr, i8, i8, [32 x i8] }
%struct.H5C_auto_size_ctl_t = type { i32, ptr, i8, i64, double, i64, i64, i64, i32, double, double, i8, i64, i32, double, double, i32, double, double, i8, i64, i32, i8, double }
%struct.H5C_cache_entry_t = type { ptr, i64, i64, ptr, i8, ptr, i8, i8, i8, i8, i32, i8, i8, i8, i8, i8, i32, ptr, i32, i32, i32, i32, i32, i8, i8, ptr, ptr, ptr, ptr, ptr, ptr, i8, i32, i8, i64, ptr, i64, i64, i32, i8, i32, i32, i8, ptr, ptr, ptr }
%struct.H5C_cache_image_ctl_t = type { i32, i8, i8, i32, i32 }
%struct.H5F_t = type { ptr, ptr, ptr, ptr, i32, ptr, i8, i8, ptr, i32 }
%struct.H5F_shared_t = type { ptr, ptr, ptr, i8, i32, i32, %struct.H5F_mtab_t, ptr, i8, i8, i64, i32, i32, i64, i64, ptr, ptr, %struct.H5AC_cache_config_t, %struct.H5AC_cache_image_config_t, i8, i8, ptr, i64, i32, i8, i64, i64, double, i64, i64, i64, i32, i32, i32, i8, i32, ptr, ptr, ptr, ptr, i8, i8, i8, i64, ptr, ptr, i32, i64, i8, i32, i8, i64, i8, [13 x i32], [13 x i64], [13 x ptr], i8, i64, i64, [7 x i32], [7 x i32], %struct.H5F_blk_aggr_t, %struct.H5F_blk_aggr_t, i64, i64, %struct.H5F_meta_accum_t, i32, i32, [30 x ptr], %struct.H5F_object_flush_t, i8, ptr }
%struct.H5F_mtab_t = type { i32, i32, ptr }
%struct.H5AC_cache_config_t = type { i32, i8, i8, i8, [1025 x i8], i8, i8, i64, double, i64, i64, i64, i32, double, double, i8, i64, i32, double, double, i32, double, double, i8, i64, i32, i8, double, i64, i32 }
%struct.H5AC_cache_image_config_t = type { i32, i8, i8, i32 }
%struct.H5F_blk_aggr_t = type { i64, i64, i64, i64, i64 }
%struct.H5F_meta_accum_t = type { ptr, i64, i64, i64, i64, i64, i8 }
%struct.H5F_object_flush_t = type { ptr, ptr }

@H5C_init_g = external global i8, align 1
@H5_libterm_g = external global i8, align 1

; Function Attrs: nounwind uwtable
define i32 @H5C_cache_image_status(ptr noundef %0, ptr noundef %1, ptr noundef %2) #0 {
  %4 = alloca ptr, align 8
  %5 = alloca ptr, align 8
  %6 = alloca ptr, align 8
  %7 = alloca ptr, align 8
  store ptr %0, ptr %4, align 8, !tbaa !26
  store ptr %1, ptr %5, align 8, !tbaa !28
  store ptr %2, ptr %6, align 8, !tbaa !28
  call void @llvm.lifetime.start.p0(i64 8, ptr %7) #8
  %8 = load i8, ptr @H5C_init_g, align 1, !tbaa !8, !range !10, !noundef !11
  %9 = trunc i8 %8 to i1
  br i1 %9, label %14, label %10

10:                                               ; preds = %3
  %11 = load i8, ptr @H5_libterm_g, align 1, !tbaa !8, !range !10, !noundef !11
  %12 = trunc i8 %11 to i1
  %13 = xor i1 %12, true
  br label %14

14:                                               ; preds = %10, %3
  %15 = phi i1 [ true, %3 ], [ %13, %10 ]
  %16 = xor i1 %15, true
  %17 = xor i1 %16, true
  %18 = zext i1 %17 to i32
  %19 = sext i32 %18 to i64
  %20 = call i64 @llvm.expect.i64(i64 %19, i64 1)
  %21 = icmp ne i64 %20, 0
  br i1 %21, label %22, label %48

22:                                               ; preds = %14
  %23 = load ptr, ptr %4, align 8, !tbaa !26
  %24 = getelementptr inbounds nuw %struct.H5F_t, ptr %23, i32 0, i32 2
  %25 = load ptr, ptr %24, align 8, !tbaa !30
  %26 = getelementptr inbounds nuw %struct.H5F_shared_t, ptr %25, i32 0, i32 16
  %27 = load ptr, ptr %26, align 8, !tbaa !35
  store ptr %27, ptr %7, align 8, !tbaa !3
  %28 = load ptr, ptr %7, align 8, !tbaa !3
  %29 = getelementptr inbounds nuw %struct.H5C_t, ptr %28, i32 0, i32 72
  %30 = load i8, ptr %29, align 1, !tbaa !12, !range !10, !noundef !11
  %31 = trunc i8 %30 to i1
  br i1 %31, label %37, label %32

32:                                               ; preds = %22
  %33 = load ptr, ptr %7, align 8, !tbaa !3
  %34 = getelementptr inbounds nuw %struct.H5C_t, ptr %33, i32 0, i32 73
  %35 = load i8, ptr %34, align 2, !tbaa !25, !range !10, !noundef !11
  %36 = trunc i8 %35 to i1
  br label %37

37:                                               ; preds = %32, %22
  %38 = phi i1 [ true, %22 ], [ %36, %32 ]
  %39 = load ptr, ptr %5, align 8, !tbaa !28
  %40 = zext i1 %38 to i8
  store i8 %40, ptr %39, align 1, !tbaa !8
  %41 = load ptr, ptr %7, align 8, !tbaa !3
  %42 = getelementptr inbounds nuw %struct.H5C_t, ptr %41, i32 0, i32 70
  %43 = getelementptr inbounds nuw %struct.H5C_cache_image_ctl_t, ptr %42, i32 0, i32 1
  %44 = load i8, ptr %43, align 4, !tbaa !53, !range !10, !noundef !11
  %45 = trunc i8 %44 to i1
  %46 = load ptr, ptr %6, align 8, !tbaa !28
  %47 = zext i1 %45 to i8
  store i8 %47, ptr %46, align 1, !tbaa !8
  br label %48

48:                                               ; preds = %37, %14
  call void @llvm.lifetime.end.p0(i64 8, ptr %7) #8
  ret i32 0
}