; Function Attrs: mustprogress nofree norecurse nosync nounwind willreturn memory(read, argmem: readwrite, inaccessiblemem: none) uwtable
define noundef i32 @H5C_cache_image_status(ptr noundef readonly captures(none) %0, ptr noundef writeonly captures(none) %1, ptr noundef writeonly captures(none) %2) local_unnamed_addr #2 {
  %4 = load i8, ptr @H5C_init_g, align 1, !tbaa !3, !range !7, !noundef !8
  %5 = trunc nuw i8 %4 to i1
  %6 = load i8, ptr @H5_libterm_g, align 1, !range !7
  %7 = trunc nuw i8 %6 to i1
  %8 = xor i1 %7, true
  %9 = select i1 %5, i1 true, i1 %8
  br i1 %9, label %10, label %25, !prof !9

10:                                               ; preds = %3
  %11 = getelementptr inbounds nuw i8, ptr %0, i64 16
  %12 = load ptr, ptr %11, align 8, !tbaa !25
  %13 = getelementptr inbounds nuw i8, ptr %12, i64 112
  %14 = load ptr, ptr %13, align 8, !tbaa !31
  %15 = getelementptr inbounds nuw i8, ptr %14, i64 527633
  %16 = load i8, ptr %15, align 1, !tbaa !10, !range !7, !noundef !8
  %17 = trunc nuw i8 %16 to i1
  br i1 %17, label %21, label %18

18:                                               ; preds = %10
  %19 = getelementptr inbounds nuw i8, ptr %14, i64 527634
  %20 = load i8, ptr %19, align 2, !tbaa !24, !range !7, !noundef !8
  br label %21

21:                                               ; preds = %18, %10
  %22 = phi i8 [ 1, %10 ], [ %20, %18 ]
  store i8 %22, ptr %1, align 1, !tbaa !3
  %23 = getelementptr inbounds nuw i8, ptr %14, i64 527620
  %24 = load i8, ptr %23, align 4, !tbaa !50, !range !7, !noundef !8
  store i8 %24, ptr %2, align 1, !tbaa !3
  br label %25

25:                                               ; preds = %21, %3
  ret i32 0
}